; Function Attrs: mustprogress uwtable
define void @_ZN10open_spiel10algorithms13InfostateNode7ReleaseEv(ptr dead_on_unwind noalias writable writeonly sret(%"class.std::unique_ptr") align 8 captures(none) %0, ptr noundef nonnull readonly align 8 captures(none) dereferenceable(240) %1) local_unnamed_addr #3 align 2 {
  %3 = getelementptr inbounds nuw i8, ptr %1, i64 8
  %4 = load ptr, ptr %3, align 8
  %5 = getelementptr inbounds nuw i8, ptr %4, i64 120
  %6 = getelementptr inbounds nuw i8, ptr %1, i64 16
  %7 = load i32, ptr %6, align 8
  %8 = sext i32 %7 to i64
  %9 = getelementptr inbounds nuw i8, ptr %4, i64 128
  %10 = load ptr, ptr %9, align 8
  %11 = load ptr, ptr %5, align 8
  %12 = ptrtoint ptr %10 to i64
  %13 = ptrtoint ptr %11 to i64
  %14 = sub i64 %12, %13
  %15 = ashr exact i64 %14, 3
  %.not.i.i = icmp ugt i64 %15, %8
  br i1 %.not.i.i, label %_ZNSt6vectorISt10unique_ptrIN10open_spiel10algorithms13InfostateNodeESt14default_deleteIS3_EESaIS6_EE2atEm.exit, label %16

16:                                               ; preds = %2
  tail call void (ptr, ...) @_ZSt24__throw_out_of_range_fmtPKcz(ptr noundef nonnull @.str.58, i64 noundef %8, i64 noundef %15) #21
  unreachable

_ZNSt6vectorISt10unique_ptrIN10open_spiel10algorithms13InfostateNodeESt14default_deleteIS3_EESaIS6_EE2atEm.exit: ; preds = %2
  %17 = getelementptr inbounds %"class.std::unique_ptr", ptr %11, i64 %8
  %18 = load i64, ptr %17, align 8
  store i64 %18, ptr %0, align 8
  store ptr null, ptr %17, align 8
  ret void
}